; Function Attrs: mustprogress nounwind uwtable
define hidden void @_ZN23ArchivedClassLoaderData7restoreEP15ClassLoaderDatabb(ptr nocapture noundef nonnull readonly align 8 dereferenceable(16) %0, ptr noundef %1, i1 noundef zeroext %2, i1 noundef zeroext %3) local_unnamed_addr #0 align 2 {
  %5 = getelementptr inbounds i8, ptr %0, i64 8
  %6 = load ptr, ptr %5, align 8
  %.not = icmp eq ptr %6, null
  br i1 %.not, label %_ZN11MutexLockerD2Ev.exit, label %7

7:                                                ; preds = %4
  %8 = tail call noundef ptr @_ZN15ClassLoaderData7modulesEv(ptr noundef nonnull align 8 dereferenceable(160) %1) #4
  %9 = getelementptr inbounds i8, ptr %1, i64 64
  %10 = load volatile ptr, ptr %9, align 8
  %11 = load ptr, ptr @Module_lock, align 8
  %.not.i.i = icmp eq ptr %11, null
  br i1 %.not.i.i, label %_ZN11MutexLockerC2EP5MutexNS0_18SafepointCheckFlagE.exit, label %12

12:                                               ; preds = %7
  tail call void @_ZN5Mutex4lockEv(ptr noundef nonnull align 8 dereferenceable(104) %11) #4
  br label %_ZN11MutexLockerC2EP5MutexNS0_18SafepointCheckFlagE.exit

_ZN11MutexLockerC2EP5MutexNS0_18SafepointCheckFlagE.exit: ; preds = %7, %12
  br i1 %2, label %13, label %16

13:                                               ; preds = %_ZN11MutexLockerC2EP5MutexNS0_18SafepointCheckFlagE.exit
  %14 = load ptr, ptr %5, align 8
  tail call void @_ZN16ModuleEntryTable21load_archived_entriesEP15ClassLoaderDataP5ArrayIP11ModuleEntryE(ptr noundef nonnull align 8 dereferenceable(880) %8, ptr noundef nonnull %1, ptr noundef %14) #4
  %15 = load ptr, ptr %0, align 8
  tail call void @_ZN17PackageEntryTable21load_archived_entriesEP5ArrayIP12PackageEntryE(ptr noundef nonnull align 8 dereferenceable(880) %10, ptr noundef %15) #4
  br label %16

16:                                               ; preds = %13, %_ZN11MutexLockerC2EP5MutexNS0_18SafepointCheckFlagE.exit
  br i1 %3, label %17, label %19

17:                                               ; preds = %16
  %18 = load ptr, ptr %5, align 8
  tail call void @_ZN16ModuleEntryTable21restore_archived_oopsEP15ClassLoaderDataP5ArrayIP11ModuleEntryE(ptr noundef nonnull align 8 dereferenceable(880) %8, ptr noundef nonnull %1, ptr noundef %18) #4
  br label %19

19:                                               ; preds = %17, %16
  br i1 %.not.i.i, label %_ZN11MutexLockerD2Ev.exit, label %20

20:                                               ; preds = %19
  tail call void @_ZN5Mutex6unlockEv(ptr noundef nonnull align 8 dereferenceable(104) %11) #4
  br label %_ZN11MutexLockerD2Ev.exit

_ZN11MutexLockerD2Ev.exit:                        ; preds = %20, %19, %4
  ret void
}